; Function Attrs: mustprogress nofree norecurse nosync nounwind willreturn memory(read, inaccessiblemem: none) uwtable
define noundef zeroext i1 @_ZNK8facebook5velox6common24BigintValuesUsingBitmask14testInt64RangeEllb(ptr nocapture noundef nonnull readonly align 8 dereferenceable(72) %this, i64 noundef %min, i64 noundef %max, i1 noundef zeroext %hasNull) unnamed_addr #7 align 2 personality ptr @__gxx_personality_v0 {
entry:
  br i1 %hasNull, label %land.lhs.true, label %if.end

land.lhs.true:                                    ; preds = %entry
  %nullAllowed_ = getelementptr inbounds i8, ptr %this, i64 8
  %0 = load i8, ptr %nullAllowed_, align 8
  %1 = and i8 %0, 1
  %tobool2.not = icmp eq i8 %1, 0
  br i1 %tobool2.not, label %if.end, label %return

if.end:                                           ; preds = %land.lhs.true, %entry
  %cmp = icmp eq i64 %min, %max
  br i1 %cmp, label %if.then3, label %if.end4

if.then3:                                         ; preds = %if.end
  %min_.i = getelementptr inbounds i8, ptr %this, i64 56
  %2 = load i64, ptr %min_.i, align 8
  %cmp.i = icmp sgt i64 %2, %min
  %max_.i = getelementptr inbounds i8, ptr %this, i64 64
  %3 = load i64, ptr %max_.i, align 8
  %cmp2.i = icmp slt i64 %3, %min
  %or.cond.i = select i1 %cmp.i, i1 true, i1 %cmp2.i
  br i1 %or.cond.i, label %return, label %if.end.i

if.end.i:                                         ; preds = %if.then3
  %bitmask_.i = getelementptr inbounds i8, ptr %this, i64 16
  %sub.i = sub nsw i64 %min, %2
  %4 = load ptr, ptr %bitmask_.i, align 8
  %div.i.i.i.i.i.i = sdiv i64 %sub.i, 64
  %add.ptr.i.i.i.i.i.i = getelementptr inbounds i64, ptr %4, i64 %div.i.i.i.i.i.i
  %5 = and i64 %sub.i, -9223372036854775745
  %cmp.i.i.i.i.i.i = icmp ugt i64 %5, -9223372036854775808
  %storemerge.idx.i.i.i.i.i.i = select i1 %cmp.i.i.i.i.i.i, i64 -8, i64 0
  %storemerge.i.i.i.i.i.i = getelementptr inbounds i8, ptr %add.ptr.i.i.i.i.i.i, i64 %storemerge.idx.i.i.i.i.i.i
  %conv4.i.i.i.i.i.i = and i64 %sub.i, 63
  %shl.i.i.i.i = shl nuw i64 1, %conv4.i.i.i.i.i.i
  %6 = load i64, ptr %storemerge.i.i.i.i.i.i, align 8
  %and.i.i.i.i.i = and i64 %6, %shl.i.i.i.i
  %tobool.i.i.i.i.i = icmp ne i64 %and.i.i.i.i.i, 0
  br label %return

if.end4:                                          ; preds = %if.end
  %max_ = getelementptr inbounds i8, ptr %this, i64 64
  %7 = load i64, ptr %max_, align 8
  %cmp5 = icmp sge i64 %7, %min
  %min_ = getelementptr inbounds i8, ptr %this, i64 56
  %8 = load i64, ptr %min_, align 8
  %cmp6 = icmp sle i64 %8, %max
  %lnot = select i1 %cmp5, i1 %cmp6, i1 false
  br label %return

return:                                           ; preds = %if.end.i, %if.then3, %land.lhs.true, %if.end4
  %retval.0 = phi i1 [ %lnot, %if.end4 ], [ true, %land.lhs.true ], [ %tobool.i.i.i.i.i, %if.end.i ], [ false, %if.then3 ]
  ret i1 %retval.0
}